target datalayout = "e-m:e-p270:32:32-p271:32:32-p272:64:64-i64:64-i128:128-f80:128-n8:16:32:64-S128"
target triple = "x86_64-pc-linux-gnu"

%struct.ObjectAddress = type { i32, i32, i32 }
%struct.RelationData = type { %struct.RelFileLocator, ptr, i32, i32, i8, i8, i8, i8, i8, i32, i32, i32, i32, ptr, ptr, i32, %struct.LockInfoData, ptr, ptr, ptr, ptr, ptr, i8, ptr, ptr, ptr, ptr, ptr, ptr, i32, ptr, i8, ptr, ptr, i32, i8, i32, ptr, i8, ptr, ptr, ptr, ptr, ptr, ptr, ptr, i32, ptr, ptr, ptr, ptr, ptr, ptr, ptr, ptr, ptr, ptr, ptr, ptr, ptr, ptr, ptr, ptr, ptr, ptr, ptr, i32, i8, ptr }
%struct.RelFileLocator = type { i32, i32, i32 }
%struct.LockInfoData = type { %struct.LockRelId }
%struct.LockRelId = type { i32, i32 }
%struct.Publication = type { i32, ptr, i8, i8, i32, %struct.PublicationActions }
%struct.PublicationActions = type { i8, i8, i8, i8 }

@InvalidObjectAddress = external constant %struct.ObjectAddress, align 4
@.str.1 = private unnamed_addr constant [17 x i8] c"pg_publication.c\00", align 1
@.str.6 = private unnamed_addr constant [50 x i8] c"schema \22%s\22 is already member of publication \22%s\22\00", align 1
@__func__.publication_add_schema = private unnamed_addr constant [23 x i8] c"publication_add_schema\00", align 1
@.str.16 = private unnamed_addr constant [38 x i8] c"cannot add schema \22%s\22 to publication\00", align 1
@.str.17 = private unnamed_addr constant [52 x i8] c"This operation is not supported for system schemas.\00", align 1
@__func__.check_publication_add_schema = private unnamed_addr constant [29 x i8] c"check_publication_add_schema\00", align 1
@.str.18 = private unnamed_addr constant [40 x i8] c"Temporary schemas cannot be replicated.\00", align 1

; Function Attrs: nounwind uwtable
define internal void @check_publication_add_schema(i32 noundef %0) #0 {
  %2 = alloca i32, align 4
  store i32 %0, ptr %2, align 4
  %3 = load i32, ptr %2, align 4
  %4 = call zeroext i1 @IsCatalogNamespace(i32 noundef %3)
  br i1 %4, label %8, label %5

5:                                                ; preds = %1
  %6 = load i32, ptr %2, align 4
  %7 = call zeroext i1 @IsToastNamespace(i32 noundef %6)
  br i1 %7, label %8, label %22

8:                                                ; preds = %5, %1
  br label %9

9:                                                ; preds = %8
  br i1 true, label %10, label %12

10:                                               ; preds = %9
  %11 = call zeroext i1 @errstart_cold(i32 noundef 21, ptr noundef null) #8
  br i1 %11, label %14, label %20

12:                                               ; preds = %9
  %13 = call zeroext i1 @errstart(i32 noundef 21, ptr noundef null)
  br i1 %13, label %14, label %20

14:                                               ; preds = %12, %10
  %15 = call i32 @errcode(i32 noundef 50856066)
  %16 = load i32, ptr %2, align 4
  %17 = call ptr @get_namespace_name(i32 noundef %16)
  %18 = call i32 (ptr, ...) @errmsg(ptr noundef @.str.16, ptr noundef %17)
  %19 = call i32 (ptr, ...) @errdetail(ptr noundef @.str.17)
  call void @errfinish(ptr noundef @.str.1, i32 noundef 103, ptr noundef @__func__.check_publication_add_schema)
  br label %20

20:                                               ; preds = %14, %12, %10
  unreachable

21:                                               ; No predecessors!
  br label %22

22:                                               ; preds = %21, %5
  %23 = load i32, ptr %2, align 4
  %24 = call zeroext i1 @isAnyTempNamespace(i32 noundef %23)
  br i1 %24, label %25, label %39

25:                                               ; preds = %22
  br label %26

26:                                               ; preds = %25
  br i1 true, label %27, label %29

27:                                               ; preds = %26
  %28 = call zeroext i1 @errstart_cold(i32 noundef 21, ptr noundef null) #8
  br i1 %28, label %31, label %37

29:                                               ; preds = %26
  %30 = call zeroext i1 @errstart(i32 noundef 21, ptr noundef null)
  br i1 %30, label %31, label %37

31:                                               ; preds = %29, %27
  %32 = call i32 @errcode(i32 noundef 50856066)
  %33 = load i32, ptr %2, align 4
  %34 = call ptr @get_namespace_name(i32 noundef %33)
  %35 = call i32 (ptr, ...) @errmsg(ptr noundef @.str.16, ptr noundef %34)
  %36 = call i32 (ptr, ...) @errdetail(ptr noundef @.str.18)
  call void @errfinish(ptr noundef @.str.1, i32 noundef 111, ptr noundef @__func__.check_publication_add_schema)
  br label %37

37:                                               ; preds = %31, %29, %27
  unreachable

38:                                               ; No predecessors!
  br label %39

39:                                               ; preds = %38, %22
  ret void
}

; Function Attrs: inlinehint nounwind uwtable
define internal i64 @ObjectIdGetDatum(i32 noundef %0) #2 {
  %2 = alloca i32, align 4
  store i32 %0, ptr %2, align 4
  %3 = load i32, ptr %2, align 4
  %4 = zext i32 %3 to i64
  ret i64 %4
}

; Function Attrs: nounwind uwtable
define dso_local { i64, i32 } @publication_add_schema(i32 noundef %0, i32 noundef %1, i1 noundef zeroext %2) #0 {
  %4 = alloca %struct.ObjectAddress, align 4
  %5 = alloca i32, align 4
  %6 = alloca i32, align 4
  %7 = alloca i8, align 1
  %8 = alloca ptr, align 8
  %9 = alloca ptr, align 8
  %10 = alloca [3 x i64], align 16
  %11 = alloca [3 x i8], align 1
  %12 = alloca i32, align 4
  %13 = alloca ptr, align 8
  %14 = alloca ptr, align 8
  %15 = alloca %struct.ObjectAddress, align 4
  %16 = alloca %struct.ObjectAddress, align 4
  %17 = alloca i32, align 4
  %18 = alloca { i64, i32 }, align 8
  store i32 %0, ptr %5, align 4
  store i32 %1, ptr %6, align 4
  %19 = zext i1 %2 to i8
  store i8 %19, ptr %7, align 1
  call void @llvm.lifetime.start.p0(i64 8, ptr %8) #7
  call void @llvm.lifetime.start.p0(i64 8, ptr %9) #7
  call void @llvm.lifetime.start.p0(i64 24, ptr %10) #7
  call void @llvm.lifetime.start.p0(i64 3, ptr %11) #7
  call void @llvm.lifetime.start.p0(i64 4, ptr %12) #7
  call void @llvm.lifetime.start.p0(i64 8, ptr %13) #7
  %20 = load i32, ptr %5, align 4
  %21 = call ptr @GetPublication(i32 noundef %20)
  store ptr %21, ptr %13, align 8
  call void @llvm.lifetime.start.p0(i64 8, ptr %14) #7
  store ptr null, ptr %14, align 8
  call void @llvm.lifetime.start.p0(i64 12, ptr %15) #7
  call void @llvm.lifetime.start.p0(i64 12, ptr %16) #7
  %22 = call ptr @table_open(i32 noundef 6237, i32 noundef 3)
  store ptr %22, ptr %8, align 8
  %23 = load i32, ptr %6, align 4
  %24 = call i64 @ObjectIdGetDatum(i32 noundef %23)
  %25 = load i32, ptr %5, align 4
  %26 = call i64 @ObjectIdGetDatum(i32 noundef %25)
  %27 = call zeroext i1 @SearchSysCacheExists(i32 noundef 50, i64 noundef %24, i64 noundef %26, i64 noundef 0, i64 noundef 0)
  br i1 %27, label %28, label %50

28:                                               ; preds = %3
  %29 = load ptr, ptr %8, align 8
  call void @table_close(ptr noundef %29, i32 noundef 3)
  %30 = load i8, ptr %7, align 1, !range !4, !noundef !5
  %31 = trunc i8 %30 to i1
  br i1 %31, label %32, label %33

32:                                               ; preds = %28
  call void @llvm.memcpy.p0.p0.i64(ptr align 4 %4, ptr align 4 @InvalidObjectAddress, i64 12, i1 false)
  store i32 1, ptr %17, align 4
  br label %99

33:                                               ; preds = %28
  br label %34

34:                                               ; preds = %33
  br i1 true, label %35, label %37

35:                                               ; preds = %34
  %36 = call zeroext i1 @errstart_cold(i32 noundef 21, ptr noundef null) #8
  br i1 %36, label %39, label %47

37:                                               ; preds = %34
  %38 = call zeroext i1 @errstart(i32 noundef 21, ptr noundef null)
  br i1 %38, label %39, label %47

39:                                               ; preds = %37, %35
  %40 = call i32 @errcode(i32 noundef 290948)
  %41 = load i32, ptr %6, align 4
  %42 = call ptr @get_namespace_name(i32 noundef %41)
  %43 = load ptr, ptr %13, align 8
  %44 = getelementptr inbounds nuw %struct.Publication, ptr %43, i32 0, i32 1
  %45 = load ptr, ptr %44, align 8
  %46 = call i32 (ptr, ...) @errmsg(ptr noundef @.str.6, ptr noundef %42, ptr noundef %45)
  call void @errfinish(ptr noundef @.str.1, i32 noundef 701, ptr noundef @__func__.publication_add_schema)
  br label %47

47:                                               ; preds = %39, %37, %35
  unreachable

48:                                               ; No predecessors!
  br label %49

49:                                               ; preds = %48
  br label %50

50:                                               ; preds = %49, %3
  %51 = load i32, ptr %6, align 4
  call void @check_publication_add_schema(i32 noundef %51)
  %52 = getelementptr inbounds [3 x i64], ptr %10, i64 0, i64 0
  call void @llvm.memset.p0.i64(ptr align 16 %52, i8 0, i64 24, i1 false)
  %53 = getelementptr inbounds [3 x i8], ptr %11, i64 0, i64 0
  call void @llvm.memset.p0.i64(ptr align 1 %53, i8 0, i64 3, i1 false)
  %54 = load ptr, ptr %8, align 8
  %55 = call i32 @GetNewOidWithIndex(ptr noundef %54, i32 noundef 6238, i16 noundef signext 1)
  store i32 %55, ptr %12, align 4
  %56 = load i32, ptr %12, align 4
  %57 = call i64 @ObjectIdGetDatum(i32 noundef %56)
  %58 = getelementptr inbounds [3 x i64], ptr %10, i64 0, i64 0
  store i64 %57, ptr %58, align 16
  %59 = load i32, ptr %5, align 4
  %60 = call i64 @ObjectIdGetDatum(i32 noundef %59)
  %61 = getelementptr inbounds [3 x i64], ptr %10, i64 0, i64 1
  store i64 %60, ptr %61, align 8
  %62 = load i32, ptr %6, align 4
  %63 = call i64 @ObjectIdGetDatum(i32 noundef %62)
  %64 = getelementptr inbounds [3 x i64], ptr %10, i64 0, i64 2
  store i64 %63, ptr %64, align 16
  %65 = load ptr, ptr %8, align 8
  %66 = getelementptr inbounds nuw %struct.RelationData, ptr %65, i32 0, i32 14
  %67 = load ptr, ptr %66, align 8
  %68 = getelementptr inbounds [3 x i64], ptr %10, i64 0, i64 0
  %69 = getelementptr inbounds [3 x i8], ptr %11, i64 0, i64 0
  %70 = call ptr @heap_form_tuple(ptr noundef %67, ptr noundef %68, ptr noundef %69)
  store ptr %70, ptr %9, align 8
  %71 = load ptr, ptr %8, align 8
  %72 = load ptr, ptr %9, align 8
  call void @CatalogTupleInsert(ptr noundef %71, ptr noundef %72)
  %73 = load ptr, ptr %9, align 8
  call void @heap_freetuple(ptr noundef %73)
  br label %74

74:                                               ; preds = %50
  %75 = getelementptr inbounds nuw %struct.ObjectAddress, ptr %15, i32 0, i32 0
  store i32 6237, ptr %75, align 4
  %76 = load i32, ptr %12, align 4
  %77 = getelementptr inbounds nuw %struct.ObjectAddress, ptr %15, i32 0, i32 1
  store i32 %76, ptr %77, align 4
  %78 = getelementptr inbounds nuw %struct.ObjectAddress, ptr %15, i32 0, i32 2
  store i32 0, ptr %78, align 4
  br label %79

79:                                               ; preds = %74
  br label %80

80:                                               ; preds = %79
  br label %81

81:                                               ; preds = %80
  %82 = getelementptr inbounds nuw %struct.ObjectAddress, ptr %16, i32 0, i32 0
  store i32 6104, ptr %82, align 4
  %83 = load i32, ptr %5, align 4
  %84 = getelementptr inbounds nuw %struct.ObjectAddress, ptr %16, i32 0, i32 1
  store i32 %83, ptr %84, align 4
  %85 = getelementptr inbounds nuw %struct.ObjectAddress, ptr %16, i32 0, i32 2
  store i32 0, ptr %85, align 4
  br label %86

86:                                               ; preds = %81
  br label %87

87:                                               ; preds = %86
  call void @recordDependencyOn(ptr noundef %15, ptr noundef %16, i32 noundef 97)
  br label %88

88:                                               ; preds = %87
  %89 = getelementptr inbounds nuw %struct.ObjectAddress, ptr %16, i32 0, i32 0
  store i32 2615, ptr %89, align 4
  %90 = load i32, ptr %6, align 4
  %91 = getelementptr inbounds nuw %struct.ObjectAddress, ptr %16, i32 0, i32 1
  store i32 %90, ptr %91, align 4
  %92 = getelementptr inbounds nuw %struct.ObjectAddress, ptr %16, i32 0, i32 2
  store i32 0, ptr %92, align 4
  br label %93

93:                                               ; preds = %88
  br label %94

94:                                               ; preds = %93
  call void @recordDependencyOn(ptr noundef %15, ptr noundef %16, i32 noundef 97)
  %95 = load ptr, ptr %8, align 8
  call void @table_close(ptr noundef %95, i32 noundef 3)
  %96 = load i32, ptr %6, align 4
  %97 = call ptr @GetSchemaPublicationRelations(i32 noundef %96, i32 noundef 2)
  store ptr %97, ptr %14, align 8
  %98 = load ptr, ptr %14, align 8
  call void @InvalidatePublicationRels(ptr noundef %98)
  call void @llvm.memcpy.p0.p0.i64(ptr align 4 %4, ptr align 4 %15, i64 12, i1 false)
  store i32 1, ptr %17, align 4
  br label %99

99:                                               ; preds = %94, %32
  call void @llvm.lifetime.end.p0(i64 12, ptr %16) #7
  call void @llvm.lifetime.end.p0(i64 12, ptr %15) #7
  call void @llvm.lifetime.end.p0(i64 8, ptr %14) #7
  call void @llvm.lifetime.end.p0(i64 8, ptr %13) #7
  call void @llvm.lifetime.end.p0(i64 4, ptr %12) #7
  call void @llvm.lifetime.end.p0(i64 3, ptr %11) #7
  call void @llvm.lifetime.end.p0(i64 24, ptr %10) #7
  call void @llvm.lifetime.end.p0(i64 8, ptr %9) #7
  call void @llvm.lifetime.end.p0(i64 8, ptr %8) #7
  call void @llvm.memcpy.p0.p0.i64(ptr align 8 %18, ptr align 4 %4, i64 12, i1 false)
  %100 = load { i64, i32 }, ptr %18, align 8
  ret { i64, i32 } %100
}