; Function Attrs: nounwind uwtable
define dso_local { i64, i32 } @publication_add_schema(i32 noundef %0, i32 noundef %1, i1 noundef zeroext %2) local_unnamed_addr #0 {
  %4 = alloca [3 x i64], align 16
  %5 = alloca [3 x i8], align 1
  %6 = alloca %struct.ObjectAddress, align 4
  %7 = alloca %struct.ObjectAddress, align 4
  call void @llvm.lifetime.start.p0(i64 24, ptr nonnull %4) #6
  call void @llvm.lifetime.start.p0(i64 3, ptr nonnull %5) #6
  %8 = tail call ptr @GetPublication(i32 noundef %0)
  call void @llvm.lifetime.start.p0(i64 12, ptr nonnull %6) #6
  call void @llvm.lifetime.start.p0(i64 12, ptr nonnull %7) #6
  %9 = tail call ptr @table_open(i32 noundef 6237, i32 noundef 3) #6
  %10 = zext i32 %1 to i64
  %11 = zext i32 %0 to i64
  %12 = tail call zeroext i1 @SearchSysCacheExists(i32 noundef 50, i64 noundef %10, i64 noundef %11, i64 noundef 0, i64 noundef 0) #6
  br i1 %12, label %13, label %22

13:                                               ; preds = %3
  tail call void @table_close(ptr noundef %9, i32 noundef 3) #6
  br i1 %2, label %14, label %15

14:                                               ; preds = %13
  %.sroa.3.0.copyload = load i32, ptr getelementptr inbounds nuw (i8, ptr @InvalidObjectAddress, i64 8), align 4
  br label %52

15:                                               ; preds = %13
  %16 = tail call zeroext i1 @errstart_cold(i32 noundef 21, ptr noundef null) #7
  tail call void @llvm.assume(i1 %16)
  %17 = tail call i32 @errcode(i32 noundef 290948) #6
  %18 = tail call ptr @get_namespace_name(i32 noundef %1) #6
  %19 = getelementptr inbounds nuw i8, ptr %8, i64 8
  %20 = load ptr, ptr %19, align 8
  %21 = tail call i32 (ptr, ...) @errmsg(ptr noundef nonnull @.str.6, ptr noundef %18, ptr noundef %20) #6
  tail call void @errfinish(ptr noundef nonnull @.str.1, i32 noundef 701, ptr noundef nonnull @__func__.publication_add_schema) #6
  unreachable

22:                                               ; preds = %3
  %23 = tail call zeroext i1 @IsCatalogNamespace(i32 noundef %1) #6
  br i1 %23, label %26, label %24

24:                                               ; preds = %22
  %25 = tail call zeroext i1 @IsToastNamespace(i32 noundef %1) #6
  br i1 %25, label %26, label %32

26:                                               ; preds = %24, %22
  %27 = tail call zeroext i1 @errstart_cold(i32 noundef 21, ptr noundef null) #7
  tail call void @llvm.assume(i1 %27)
  %28 = tail call i32 @errcode(i32 noundef 50856066) #6
  %29 = tail call ptr @get_namespace_name(i32 noundef %1) #6
  %30 = tail call i32 (ptr, ...) @errmsg(ptr noundef nonnull @.str.16, ptr noundef %29) #6
  %31 = tail call i32 (ptr, ...) @errdetail(ptr noundef nonnull @.str.17) #6
  tail call void @errfinish(ptr noundef nonnull @.str.1, i32 noundef 103, ptr noundef nonnull @__func__.check_publication_add_schema) #6
  unreachable

32:                                               ; preds = %24
  %33 = tail call zeroext i1 @isAnyTempNamespace(i32 noundef %1) #6
  br i1 %33, label %34, label %check_publication_add_schema.exit

34:                                               ; preds = %32
  %35 = tail call zeroext i1 @errstart_cold(i32 noundef 21, ptr noundef null) #7
  tail call void @llvm.assume(i1 %35)
  %36 = tail call i32 @errcode(i32 noundef 50856066) #6
  %37 = tail call ptr @get_namespace_name(i32 noundef %1) #6
  %38 = tail call i32 (ptr, ...) @errmsg(ptr noundef nonnull @.str.16, ptr noundef %37) #6
  %39 = tail call i32 (ptr, ...) @errdetail(ptr noundef nonnull @.str.18) #6
  tail call void @errfinish(ptr noundef nonnull @.str.1, i32 noundef 111, ptr noundef nonnull @__func__.check_publication_add_schema) #6
  unreachable

check_publication_add_schema.exit:                ; preds = %32
  call void @llvm.memset.p0.i64(ptr noundef nonnull align 1 dereferenceable(3) %5, i8 0, i64 3, i1 false)
  %40 = tail call i32 @GetNewOidWithIndex(ptr noundef %9, i32 noundef 6238, i16 noundef signext 1) #6
  %41 = zext i32 %40 to i64
  store i64 %41, ptr %4, align 16
  %42 = getelementptr inbounds nuw i8, ptr %4, i64 8
  store i64 %11, ptr %42, align 8
  %43 = getelementptr inbounds nuw i8, ptr %4, i64 16
  store i64 %10, ptr %43, align 16
  %44 = getelementptr inbounds nuw i8, ptr %9, i64 64
  %45 = load ptr, ptr %44, align 8
  %46 = call ptr @heap_form_tuple(ptr noundef %45, ptr noundef nonnull %4, ptr noundef nonnull %5) #6
  call void @CatalogTupleInsert(ptr noundef %9, ptr noundef %46) #6
  call void @heap_freetuple(ptr noundef %46) #6
  store i32 6237, ptr %6, align 4
  %47 = getelementptr inbounds nuw i8, ptr %6, i64 4
  store i32 %40, ptr %47, align 4
  %48 = getelementptr inbounds nuw i8, ptr %6, i64 8
  store i32 0, ptr %48, align 4
  store i32 6104, ptr %7, align 4
  %49 = getelementptr inbounds nuw i8, ptr %7, i64 4
  store i32 %0, ptr %49, align 4
  %50 = getelementptr inbounds nuw i8, ptr %7, i64 8
  store i32 0, ptr %50, align 4
  call void @recordDependencyOn(ptr noundef nonnull %6, ptr noundef nonnull %7, i32 noundef 97) #6
  store i32 2615, ptr %7, align 4
  store i32 %1, ptr %49, align 4
  store i32 0, ptr %50, align 4
  call void @recordDependencyOn(ptr noundef nonnull %6, ptr noundef nonnull %7, i32 noundef 97) #6
  call void @table_close(ptr noundef %9, i32 noundef 3) #6
  %51 = call ptr @GetSchemaPublicationRelations(i32 noundef %1, i32 noundef 2)
  call void @InvalidatePublicationRels(ptr noundef %51) #6
  %.sroa.3.0.copyload23 = load i32, ptr %48, align 4
  br label %52

52:                                               ; preds = %check_publication_add_schema.exit, %14
  %.sroa.021.0.in = phi ptr [ @InvalidObjectAddress, %14 ], [ %6, %check_publication_add_schema.exit ]
  %.sroa.3.0 = phi i32 [ %.sroa.3.0.copyload, %14 ], [ %.sroa.3.0.copyload23, %check_publication_add_schema.exit ]
  %.sroa.021.0 = load i64, ptr %.sroa.021.0.in, align 4
  call void @llvm.lifetime.end.p0(i64 12, ptr nonnull %7) #6
  call void @llvm.lifetime.end.p0(i64 12, ptr nonnull %6) #6
  call void @llvm.lifetime.end.p0(i64 3, ptr nonnull %5) #6
  call void @llvm.lifetime.end.p0(i64 24, ptr nonnull %4) #6
  %.fca.0.insert = insertvalue { i64, i32 } poison, i64 %.sroa.021.0, 0
  %.fca.1.insert = insertvalue { i64, i32 } %.fca.0.insert, i32 %.sroa.3.0, 1
  ret { i64, i32 } %.fca.1.insert
}